target datalayout = "e-m:e-p270:32:32-p271:32:32-p272:64:64-i64:64-i128:128-f80:128-n8:16:32:64-S128"
target triple = "x86_64-pc-linux-gnu"

%struct.packing_data = type { ptr, ptr, i32, i32, ptr, i32, ptr, ptr, ptr, ptr, %union.pthread_mutex_t, ptr, i32, i32, i64, i64, ptr, ptr, ptr }
%union.pthread_mutex_t = type { %struct.__pthread_mutex_s }
%struct.__pthread_mutex_s = type { i32, i32, i32, i32, i32, i16, i16, %struct.__pthread_internal_list }
%struct.__pthread_internal_list = type { ptr, ptr }
%struct.object_entry = type { %struct.pack_idx_entry, ptr, i64, i32, i32, i32, i32, i32, [3 x i8], i8, i64 }
%struct.pack_idx_entry = type { %struct.object_id, i32, i64 }
%struct.object_id = type { [32 x i8], i32 }

@to_pack = internal global %struct.packing_data zeroinitializer, align 8
@use_delta_islands = internal global i32 0, align 4

; Function Attrs: inlinehint nounwind uwtable
define internal i64 @oe_size(ptr noundef %0, ptr noundef %1) #2 {
  %3 = alloca i64, align 8
  %4 = alloca ptr, align 8
  %5 = alloca ptr, align 8
  store ptr %0, ptr %4, align 8, !tbaa !4
  store ptr %1, ptr %5, align 8, !tbaa !9
  %6 = load ptr, ptr %5, align 8, !tbaa !9
  %7 = getelementptr inbounds nuw %struct.object_entry, ptr %6, i32 0, i32 4
  %8 = load i32, ptr %7, align 4
  %9 = lshr i32 %8, 31
  %10 = icmp ne i32 %9, 0
  br i1 %10, label %11, label %17

11:                                               ; preds = %2
  %12 = load ptr, ptr %5, align 8, !tbaa !9
  %13 = getelementptr inbounds nuw %struct.object_entry, ptr %12, i32 0, i32 4
  %14 = load i32, ptr %13, align 4
  %15 = and i32 %14, 2147483647
  %16 = zext i32 %15 to i64
  store i64 %16, ptr %3, align 8
  br label %21

17:                                               ; preds = %2
  %18 = load ptr, ptr %4, align 8, !tbaa !4
  %19 = load ptr, ptr %5, align 8, !tbaa !9
  %20 = call i64 @oe_get_size_slow(ptr noundef %18, ptr noundef %19)
  store i64 %20, ptr %3, align 8
  br label %21

21:                                               ; preds = %17, %11
  %22 = load i64, ptr %3, align 8
  ret i64 %22
}

; Function Attrs: inlinehint nounwind uwtable
define internal i32 @oe_type(ptr noundef %0) #2 {
  %2 = alloca ptr, align 8
  store ptr %0, ptr %2, align 8, !tbaa !9
  %3 = load ptr, ptr %2, align 8, !tbaa !9
  %4 = getelementptr inbounds nuw %struct.object_entry, ptr %3, i32 0, i32 10
  %5 = load i64, ptr %4, align 8
  %6 = lshr i64 %5, 30
  %7 = and i64 %6, 1
  %8 = trunc i64 %7 to i32
  %9 = icmp ne i32 %8, 0
  br i1 %9, label %10, label %17

10:                                               ; preds = %1
  %11 = load ptr, ptr %2, align 8, !tbaa !9
  %12 = getelementptr inbounds nuw %struct.object_entry, ptr %11, i32 0, i32 10
  %13 = load i64, ptr %12, align 8
  %14 = lshr i64 %13, 32
  %15 = and i64 %14, 7
  %16 = trunc i64 %15 to i32
  br label %18

17:                                               ; preds = %1
  br label %18

18:                                               ; preds = %17, %10
  %19 = phi i32 [ %16, %10 ], [ -1, %17 ]
  ret i32 %19
}

; Function Attrs: nounwind uwtable
define internal i32 @type_size_sort(ptr noundef %0, ptr noundef %1) #0 {
  %3 = alloca i32, align 4
  %4 = alloca ptr, align 8
  %5 = alloca ptr, align 8
  %6 = alloca ptr, align 8
  %7 = alloca ptr, align 8
  %8 = alloca i32, align 4
  %9 = alloca i32, align 4
  %10 = alloca i64, align 8
  %11 = alloca i64, align 8
  %12 = alloca i32, align 4
  %13 = alloca i32, align 4
  store ptr %0, ptr %4, align 8, !tbaa !134
  store ptr %1, ptr %5, align 8, !tbaa !134
  call void @llvm.lifetime.start.p0(i64 8, ptr %6) #11
  %14 = load ptr, ptr %4, align 8, !tbaa !134
  %15 = load ptr, ptr %14, align 8, !tbaa !9
  store ptr %15, ptr %6, align 8, !tbaa !9
  call void @llvm.lifetime.start.p0(i64 8, ptr %7) #11
  %16 = load ptr, ptr %5, align 8, !tbaa !134
  %17 = load ptr, ptr %16, align 8, !tbaa !9
  store ptr %17, ptr %7, align 8, !tbaa !9
  call void @llvm.lifetime.start.p0(i64 4, ptr %8) #11
  %18 = load ptr, ptr %6, align 8, !tbaa !9
  %19 = call i32 @oe_type(ptr noundef %18)
  store i32 %19, ptr %8, align 4, !tbaa !27
  call void @llvm.lifetime.start.p0(i64 4, ptr %9) #11
  %20 = load ptr, ptr %7, align 8, !tbaa !9
  %21 = call i32 @oe_type(ptr noundef %20)
  store i32 %21, ptr %9, align 4, !tbaa !27
  call void @llvm.lifetime.start.p0(i64 8, ptr %10) #11
  %22 = load ptr, ptr %6, align 8, !tbaa !9
  %23 = call i64 @oe_size(ptr noundef @to_pack, ptr noundef %22)
  store i64 %23, ptr %10, align 8, !tbaa !13
  call void @llvm.lifetime.start.p0(i64 8, ptr %11) #11
  %24 = load ptr, ptr %7, align 8, !tbaa !9
  %25 = call i64 @oe_size(ptr noundef @to_pack, ptr noundef %24)
  store i64 %25, ptr %11, align 8, !tbaa !13
  %26 = load i32, ptr %8, align 4, !tbaa !27
  %27 = load i32, ptr %9, align 4, !tbaa !27
  %28 = icmp sgt i32 %26, %27
  br i1 %28, label %29, label %30

29:                                               ; preds = %2
  store i32 -1, ptr %3, align 4
  store i32 1, ptr %12, align 4
  br label %124

30:                                               ; preds = %2
  %31 = load i32, ptr %8, align 4, !tbaa !27
  %32 = load i32, ptr %9, align 4, !tbaa !27
  %33 = icmp slt i32 %31, %32
  br i1 %33, label %34, label %35

34:                                               ; preds = %30
  store i32 1, ptr %3, align 4
  store i32 1, ptr %12, align 4
  br label %124

35:                                               ; preds = %30
  %36 = load ptr, ptr %6, align 8, !tbaa !9
  %37 = getelementptr inbounds nuw %struct.object_entry, ptr %36, i32 0, i32 3
  %38 = load i32, ptr %37, align 8, !tbaa !260
  %39 = load ptr, ptr %7, align 8, !tbaa !9
  %40 = getelementptr inbounds nuw %struct.object_entry, ptr %39, i32 0, i32 3
  %41 = load i32, ptr %40, align 8, !tbaa !260
  %42 = icmp ugt i32 %38, %41
  br i1 %42, label %43, label %44

43:                                               ; preds = %35
  store i32 -1, ptr %3, align 4
  store i32 1, ptr %12, align 4
  br label %124

44:                                               ; preds = %35
  %45 = load ptr, ptr %6, align 8, !tbaa !9
  %46 = getelementptr inbounds nuw %struct.object_entry, ptr %45, i32 0, i32 3
  %47 = load i32, ptr %46, align 8, !tbaa !260
  %48 = load ptr, ptr %7, align 8, !tbaa !9
  %49 = getelementptr inbounds nuw %struct.object_entry, ptr %48, i32 0, i32 3
  %50 = load i32, ptr %49, align 8, !tbaa !260
  %51 = icmp ult i32 %47, %50
  br i1 %51, label %52, label %53

52:                                               ; preds = %44
  store i32 1, ptr %3, align 4
  store i32 1, ptr %12, align 4
  br label %124

53:                                               ; preds = %44
  %54 = load ptr, ptr %6, align 8, !tbaa !9
  %55 = getelementptr inbounds nuw %struct.object_entry, ptr %54, i32 0, i32 10
  %56 = load i64, ptr %55, align 8
  %57 = lshr i64 %56, 38
  %58 = and i64 %57, 1
  %59 = trunc i64 %58 to i32
  %60 = load ptr, ptr %7, align 8, !tbaa !9
  %61 = getelementptr inbounds nuw %struct.object_entry, ptr %60, i32 0, i32 10
  %62 = load i64, ptr %61, align 8
  %63 = lshr i64 %62, 38
  %64 = and i64 %63, 1
  %65 = trunc i64 %64 to i32
  %66 = icmp sgt i32 %59, %65
  br i1 %66, label %67, label %68

67:                                               ; preds = %53
  store i32 -1, ptr %3, align 4
  store i32 1, ptr %12, align 4
  br label %124

68:                                               ; preds = %53
  %69 = load ptr, ptr %6, align 8, !tbaa !9
  %70 = getelementptr inbounds nuw %struct.object_entry, ptr %69, i32 0, i32 10
  %71 = load i64, ptr %70, align 8
  %72 = lshr i64 %71, 38
  %73 = and i64 %72, 1
  %74 = trunc i64 %73 to i32
  %75 = load ptr, ptr %7, align 8, !tbaa !9
  %76 = getelementptr inbounds nuw %struct.object_entry, ptr %75, i32 0, i32 10
  %77 = load i64, ptr %76, align 8
  %78 = lshr i64 %77, 38
  %79 = and i64 %78, 1
  %80 = trunc i64 %79 to i32
  %81 = icmp slt i32 %74, %80
  br i1 %81, label %82, label %83

82:                                               ; preds = %68
  store i32 1, ptr %3, align 4
  store i32 1, ptr %12, align 4
  br label %124

83:                                               ; preds = %68
  %84 = load i32, ptr @use_delta_islands, align 4, !tbaa !27
  %85 = icmp ne i32 %84, 0
  br i1 %85, label %86, label %102

86:                                               ; preds = %83
  call void @llvm.lifetime.start.p0(i64 4, ptr %13) #11
  %87 = load ptr, ptr %6, align 8, !tbaa !9
  %88 = getelementptr inbounds nuw %struct.object_entry, ptr %87, i32 0, i32 0
  %89 = getelementptr inbounds nuw %struct.pack_idx_entry, ptr %88, i32 0, i32 0
  %90 = load ptr, ptr %7, align 8, !tbaa !9
  %91 = getelementptr inbounds nuw %struct.object_entry, ptr %90, i32 0, i32 0
  %92 = getelementptr inbounds nuw %struct.pack_idx_entry, ptr %91, i32 0, i32 0
  %93 = call i32 @island_delta_cmp(ptr noundef %89, ptr noundef %92)
  store i32 %93, ptr %13, align 4, !tbaa !27
  %94 = load i32, ptr %13, align 4, !tbaa !27
  %95 = icmp ne i32 %94, 0
  br i1 %95, label %96, label %98

96:                                               ; preds = %86
  %97 = load i32, ptr %13, align 4, !tbaa !27
  store i32 %97, ptr %3, align 4
  store i32 1, ptr %12, align 4
  br label %99

98:                                               ; preds = %86
  store i32 0, ptr %12, align 4
  br label %99

99:                                               ; preds = %98, %96
  call void @llvm.lifetime.end.p0(i64 4, ptr %13) #11
  %100 = load i32, ptr %12, align 4
  switch i32 %100, label %124 [
    i32 0, label %101
  ]

101:                                              ; preds = %99
  br label %102

102:                                              ; preds = %101, %83
  %103 = load i64, ptr %10, align 8, !tbaa !13
  %104 = load i64, ptr %11, align 8, !tbaa !13
  %105 = icmp ugt i64 %103, %104
  br i1 %105, label %106, label %107

106:                                              ; preds = %102
  store i32 -1, ptr %3, align 4
  store i32 1, ptr %12, align 4
  br label %124

107:                                              ; preds = %102
  %108 = load i64, ptr %10, align 8, !tbaa !13
  %109 = load i64, ptr %11, align 8, !tbaa !13
  %110 = icmp ult i64 %108, %109
  br i1 %110, label %111, label %112

111:                                              ; preds = %107
  store i32 1, ptr %3, align 4
  store i32 1, ptr %12, align 4
  br label %124

112:                                              ; preds = %107
  %113 = load ptr, ptr %6, align 8, !tbaa !9
  %114 = load ptr, ptr %7, align 8, !tbaa !9
  %115 = icmp ult ptr %113, %114
  br i1 %115, label %116, label %117

116:                                              ; preds = %112
  br label %122

117:                                              ; preds = %112
  %118 = load ptr, ptr %6, align 8, !tbaa !9
  %119 = load ptr, ptr %7, align 8, !tbaa !9
  %120 = icmp ugt ptr %118, %119
  %121 = zext i1 %120 to i32
  br label %122

122:                                              ; preds = %117, %116
  %123 = phi i32 [ -1, %116 ], [ %121, %117 ]
  store i32 %123, ptr %3, align 4
  store i32 1, ptr %12, align 4
  br label %124

124:                                              ; preds = %122, %111, %106, %99, %82, %67, %52, %43, %34, %29
  call void @llvm.lifetime.end.p0(i64 8, ptr %11) #11
  call void @llvm.lifetime.end.p0(i64 8, ptr %10) #11
  call void @llvm.lifetime.end.p0(i64 4, ptr %9) #11
  call void @llvm.lifetime.end.p0(i64 4, ptr %8) #11
  call void @llvm.lifetime.end.p0(i64 8, ptr %7) #11
  call void @llvm.lifetime.end.p0(i64 8, ptr %6) #11
  %125 = load i32, ptr %3, align 4
  ret i32 %125
}