; Function Attrs: nounwind uwtable
define internal i32 @type_size_sort(ptr noundef readonly captures(none) %0, ptr noundef readonly captures(none) %1) #0 {
  %3 = load ptr, ptr %0, align 8, !tbaa !159
  %4 = load ptr, ptr %1, align 8, !tbaa !159
  %5 = getelementptr i8, ptr %3, i64 88
  %.val41 = load i64, ptr %5, align 8
  %6 = and i64 %.val41, 1073741824
  %.not.i = icmp eq i64 %6, 0
  %7 = lshr i64 %.val41, 32
  %8 = trunc nuw i64 %7 to i32
  %9 = and i32 %8, 7
  %10 = select i1 %.not.i, i32 -1, i32 %9
  %11 = getelementptr i8, ptr %4, i64 88
  %.val = load i64, ptr %11, align 8
  %12 = and i64 %.val, 1073741824
  %.not.i42 = icmp eq i64 %12, 0
  %13 = lshr i64 %.val, 32
  %14 = trunc nuw i64 %13 to i32
  %15 = and i32 %14, 7
  %16 = select i1 %.not.i42, i32 -1, i32 %15
  %17 = getelementptr inbounds nuw i8, ptr %3, i64 68
  %18 = load i32, ptr %17, align 4
  %.not.i43 = icmp sgt i32 %18, -1
  br i1 %.not.i43, label %22, label %19

19:                                               ; preds = %2
  %20 = and i32 %18, 2147483647
  %21 = zext nneg i32 %20 to i64
  br label %oe_size.exit

22:                                               ; preds = %2
  %23 = tail call i64 @oe_get_size_slow(ptr noundef nonnull @to_pack, ptr noundef nonnull %3)
  br label %oe_size.exit

oe_size.exit:                                     ; preds = %19, %22
  %.0.i = phi i64 [ %21, %19 ], [ %23, %22 ]
  %24 = getelementptr inbounds nuw i8, ptr %4, i64 68
  %25 = load i32, ptr %24, align 4
  %.not.i44 = icmp sgt i32 %25, -1
  br i1 %.not.i44, label %29, label %26

26:                                               ; preds = %oe_size.exit
  %27 = and i32 %25, 2147483647
  %28 = zext nneg i32 %27 to i64
  br label %oe_size.exit46

29:                                               ; preds = %oe_size.exit
  %30 = tail call i64 @oe_get_size_slow(ptr noundef nonnull @to_pack, ptr noundef nonnull %4)
  br label %oe_size.exit46

oe_size.exit46:                                   ; preds = %26, %29
  %.0.i45 = phi i64 [ %28, %26 ], [ %30, %29 ]
  %31 = icmp sgt i32 %10, %16
  br i1 %31, label %67, label %32

32:                                               ; preds = %oe_size.exit46
  %33 = icmp slt i32 %10, %16
  br i1 %33, label %67, label %34

34:                                               ; preds = %32
  %35 = getelementptr inbounds nuw i8, ptr %3, i64 64
  %36 = load i32, ptr %35, align 8, !tbaa !197
  %37 = getelementptr inbounds nuw i8, ptr %4, i64 64
  %38 = load i32, ptr %37, align 8, !tbaa !197
  %39 = icmp ugt i32 %36, %38
  br i1 %39, label %67, label %40

40:                                               ; preds = %34
  %41 = icmp ult i32 %36, %38
  br i1 %41, label %67, label %42

42:                                               ; preds = %40
  %43 = load i64, ptr %5, align 8
  %44 = lshr i64 %43, 38
  %45 = trunc nuw nsw i64 %44 to i32
  %46 = and i32 %45, 1
  %47 = load i64, ptr %11, align 8
  %48 = lshr i64 %47, 38
  %49 = trunc nuw nsw i64 %48 to i32
  %50 = and i32 %49, 1
  %51 = icmp samesign ugt i32 %46, %50
  br i1 %51, label %67, label %52

52:                                               ; preds = %42
  %53 = icmp samesign ult i32 %46, %50
  br i1 %53, label %67, label %54

54:                                               ; preds = %52
  %55 = load i32, ptr @use_delta_islands, align 4, !tbaa !30
  %.not = icmp eq i32 %55, 0
  br i1 %.not, label %58, label %56

56:                                               ; preds = %54
  %57 = tail call i32 @island_delta_cmp(ptr noundef nonnull %3, ptr noundef nonnull %4) #25
  %.not40 = icmp eq i32 %57, 0
  br i1 %.not40, label %58, label %67

58:                                               ; preds = %56, %54
  %59 = icmp ugt i64 %.0.i, %.0.i45
  br i1 %59, label %67, label %60

60:                                               ; preds = %58
  %61 = icmp ult i64 %.0.i, %.0.i45
  br i1 %61, label %67, label %62

62:                                               ; preds = %60
  %63 = icmp ult ptr %3, %4
  %64 = icmp ugt ptr %3, %4
  %65 = zext i1 %64 to i32
  %66 = select i1 %63, i32 -1, i32 %65
  br label %67

67:                                               ; preds = %60, %58, %52, %42, %40, %34, %32, %oe_size.exit46, %56, %62
  %.0 = phi i32 [ %66, %62 ], [ %57, %56 ], [ -1, %oe_size.exit46 ], [ 1, %32 ], [ -1, %34 ], [ 1, %40 ], [ -1, %42 ], [ 1, %52 ], [ -1, %58 ], [ 1, %60 ]
  ret i32 %.0
}